target datalayout = "e-m:e-p270:32:32-p271:32:32-p272:64:64-i64:64-i128:128-f80:128-n8:16:32:64-S128"
target triple = "x86_64-pc-linux-gnu"

@.str = private unnamed_addr constant [34 x i8] c"../openssl/crypto/cms/cms_smime.c\00", align 1
@__func__.CMS_sign_ex = private unnamed_addr constant [12 x i8] c"CMS_sign_ex\00", align 1

; Function Attrs: inlinehint nounwind uwtable
define internal ptr @ossl_check_const_X509_sk_type(ptr noundef %0) #3 {
  %2 = alloca ptr, align 8
  store ptr %0, ptr %2, align 8, !tbaa !28
  %3 = load ptr, ptr %2, align 8, !tbaa !28
  ret ptr %3
}

; Function Attrs: nounwind uwtable
define ptr @CMS_sign_ex(ptr noundef %0, ptr noundef %1, ptr noundef %2, ptr noundef %3, i32 noundef %4, ptr noundef %5, ptr noundef %6) #0 {
  %8 = alloca ptr, align 8
  %9 = alloca ptr, align 8
  %10 = alloca ptr, align 8
  %11 = alloca ptr, align 8
  %12 = alloca ptr, align 8
  %13 = alloca i32, align 4
  %14 = alloca ptr, align 8
  %15 = alloca ptr, align 8
  %16 = alloca ptr, align 8
  %17 = alloca i32, align 4
  %18 = alloca ptr, align 8
  %19 = alloca i32, align 4
  store ptr %0, ptr %9, align 8, !tbaa !44
  store ptr %1, ptr %10, align 8, !tbaa !54
  store ptr %2, ptr %11, align 8, !tbaa !28
  store ptr %3, ptr %12, align 8, !tbaa !8
  store i32 %4, ptr %13, align 4, !tbaa !10
  store ptr %5, ptr %14, align 8, !tbaa !12
  store ptr %6, ptr %15, align 8, !tbaa !14
  call void @llvm.lifetime.start.p0(i64 8, ptr %16) #4
  call void @llvm.lifetime.start.p0(i64 4, ptr %17) #4
  %20 = load ptr, ptr %14, align 8, !tbaa !12
  %21 = load ptr, ptr %15, align 8, !tbaa !14
  %22 = call ptr @CMS_ContentInfo_new_ex(ptr noundef %20, ptr noundef %21)
  store ptr %22, ptr %16, align 8, !tbaa !3
  %23 = load ptr, ptr %16, align 8, !tbaa !3
  %24 = icmp eq ptr %23, null
  br i1 %24, label %29, label %25

25:                                               ; preds = %7
  %26 = load ptr, ptr %16, align 8, !tbaa !3
  %27 = call i32 @CMS_SignedData_init(ptr noundef %26)
  %28 = icmp ne i32 %27, 0
  br i1 %28, label %30, label %29

29:                                               ; preds = %25, %7
  call void @ERR_new()
  call void @ERR_set_debug(ptr noundef @.str, i32 noundef 523, ptr noundef @__func__.CMS_sign_ex)
  call void (i32, i32, ptr, ...) @ERR_set_error(i32 noundef 46, i32 noundef 524334, ptr noundef null)
  br label %95

30:                                               ; preds = %25
  %31 = load i32, ptr %13, align 4, !tbaa !10
  %32 = and i32 %31, 524288
  %33 = icmp ne i32 %32, 0
  br i1 %33, label %34, label %40

34:                                               ; preds = %30
  %35 = load ptr, ptr %16, align 8, !tbaa !3
  %36 = call ptr @OBJ_nid2obj(i32 noundef 787)
  %37 = call i32 @CMS_set1_eContentType(ptr noundef %35, ptr noundef %36)
  %38 = icmp ne i32 %37, 0
  br i1 %38, label %40, label %39

39:                                               ; preds = %34
  call void @ERR_new()
  call void @ERR_set_debug(ptr noundef @.str, i32 noundef 529, ptr noundef @__func__.CMS_sign_ex)
  call void (i32, i32, ptr, ...) @ERR_set_error(i32 noundef 46, i32 noundef 524334, ptr noundef null)
  br label %95

40:                                               ; preds = %34, %30
  %41 = load ptr, ptr %10, align 8, !tbaa !54
  %42 = icmp ne ptr %41, null
  br i1 %42, label %43, label %51

43:                                               ; preds = %40
  %44 = load ptr, ptr %16, align 8, !tbaa !3
  %45 = load ptr, ptr %9, align 8, !tbaa !44
  %46 = load ptr, ptr %10, align 8, !tbaa !54
  %47 = load i32, ptr %13, align 4, !tbaa !10
  %48 = call ptr @CMS_add1_signer(ptr noundef %44, ptr noundef %45, ptr noundef %46, ptr noundef null, i32 noundef %47)
  %49 = icmp ne ptr %48, null
  br i1 %49, label %51, label %50

50:                                               ; preds = %43
  call void @ERR_new()
  call void @ERR_set_debug(ptr noundef @.str, i32 noundef 534, ptr noundef @__func__.CMS_sign_ex)
  call void (i32, i32, ptr, ...) @ERR_set_error(i32 noundef 46, i32 noundef 99, ptr noundef null)
  br label %95

51:                                               ; preds = %43, %40
  store i32 0, ptr %17, align 4, !tbaa !10
  br label %52

52:                                               ; preds = %72, %51
  %53 = load i32, ptr %17, align 4, !tbaa !10
  %54 = load ptr, ptr %11, align 8, !tbaa !28
  %55 = call ptr @ossl_check_const_X509_sk_type(ptr noundef %54)
  %56 = call i32 @OPENSSL_sk_num(ptr noundef %55)
  %57 = icmp slt i32 %53, %56
  br i1 %57, label %58, label %75

58:                                               ; preds = %52
  call void @llvm.lifetime.start.p0(i64 8, ptr %18) #4
  %59 = load ptr, ptr %11, align 8, !tbaa !28
  %60 = call ptr @ossl_check_const_X509_sk_type(ptr noundef %59)
  %61 = load i32, ptr %17, align 4, !tbaa !10
  %62 = call ptr @OPENSSL_sk_value(ptr noundef %60, i32 noundef %61)
  store ptr %62, ptr %18, align 8, !tbaa !44
  %63 = load ptr, ptr %16, align 8, !tbaa !3
  %64 = load ptr, ptr %18, align 8, !tbaa !44
  %65 = call i32 @CMS_add1_cert(ptr noundef %63, ptr noundef %64)
  %66 = icmp ne i32 %65, 0
  br i1 %66, label %68, label %67

67:                                               ; preds = %58
  call void @ERR_new()
  call void @ERR_set_debug(ptr noundef @.str, i32 noundef 542, ptr noundef @__func__.CMS_sign_ex)
  call void (i32, i32, ptr, ...) @ERR_set_error(i32 noundef 46, i32 noundef 524334, ptr noundef null)
  store i32 2, ptr %19, align 4
  br label %69

68:                                               ; preds = %58
  store i32 0, ptr %19, align 4
  br label %69

69:                                               ; preds = %67, %68
  call void @llvm.lifetime.end.p0(i64 8, ptr %18) #4
  %70 = load i32, ptr %19, align 4
  switch i32 %70, label %97 [
    i32 0, label %71
    i32 2, label %95
  ]

71:                                               ; preds = %69
  br label %72

72:                                               ; preds = %71
  %73 = load i32, ptr %17, align 4, !tbaa !10
  %74 = add nsw i32 %73, 1
  store i32 %74, ptr %17, align 4, !tbaa !10
  br label %52, !llvm.loop !56

75:                                               ; preds = %52
  %76 = load i32, ptr %13, align 4, !tbaa !10
  %77 = and i32 %76, 64
  %78 = icmp ne i32 %77, 0
  br i1 %78, label %82, label %79

79:                                               ; preds = %75
  %80 = load ptr, ptr %16, align 8, !tbaa !3
  %81 = call i32 @CMS_set_detached(ptr noundef %80, i32 noundef 0)
  br label %82

82:                                               ; preds = %79, %75
  %83 = load i32, ptr %13, align 4, !tbaa !10
  %84 = and i32 %83, 20480
  %85 = icmp ne i32 %84, 0
  br i1 %85, label %92, label %86

86:                                               ; preds = %82
  %87 = load ptr, ptr %16, align 8, !tbaa !3
  %88 = load ptr, ptr %12, align 8, !tbaa !8
  %89 = load i32, ptr %13, align 4, !tbaa !10
  %90 = call i32 @CMS_final(ptr noundef %87, ptr noundef %88, ptr noundef null, i32 noundef %89)
  %91 = icmp ne i32 %90, 0
  br i1 %91, label %92, label %94

92:                                               ; preds = %86, %82
  %93 = load ptr, ptr %16, align 8, !tbaa !3
  store ptr %93, ptr %8, align 8
  store i32 1, ptr %19, align 4
  br label %97

94:                                               ; preds = %86
  br label %95

95:                                               ; preds = %69, %94, %50, %39, %29
  %96 = load ptr, ptr %16, align 8, !tbaa !3
  call void @CMS_ContentInfo_free(ptr noundef %96)
  store ptr null, ptr %8, align 8
  store i32 1, ptr %19, align 4
  br label %97

97:                                               ; preds = %95, %92, %69
  call void @llvm.lifetime.end.p0(i64 4, ptr %17) #4
  call void @llvm.lifetime.end.p0(i64 8, ptr %16) #4
  %98 = load ptr, ptr %8, align 8
  ret ptr %98
}