; Function Attrs: nounwind uwtable
define ptr @CMS_sign_ex(ptr noundef %0, ptr noundef %1, ptr noundef %2, ptr noundef %3, i32 noundef %4, ptr noundef %5, ptr noundef %6) local_unnamed_addr #0 {
  %8 = tail call ptr @CMS_ContentInfo_new_ex(ptr noundef %5, ptr noundef %6) #4
  %9 = icmp eq ptr %8, null
  br i1 %9, label %.sink.split, label %10

10:                                               ; preds = %7
  %11 = tail call i32 @CMS_SignedData_init(ptr noundef nonnull %8) #4
  %.not = icmp eq i32 %11, 0
  br i1 %.not, label %.sink.split, label %12

12:                                               ; preds = %10
  %13 = and i32 %4, 524288
  %.not31 = icmp eq i32 %13, 0
  br i1 %.not31, label %17, label %14

14:                                               ; preds = %12
  %15 = tail call ptr @OBJ_nid2obj(i32 noundef 787) #4
  %16 = tail call i32 @CMS_set1_eContentType(ptr noundef nonnull %8, ptr noundef %15) #4
  %.not32 = icmp eq i32 %16, 0
  br i1 %.not32, label %.sink.split, label %17

17:                                               ; preds = %14, %12
  %.not33 = icmp eq ptr %1, null
  br i1 %.not33, label %20, label %18

18:                                               ; preds = %17
  %19 = tail call ptr @CMS_add1_signer(ptr noundef nonnull %8, ptr noundef %0, ptr noundef nonnull %1, ptr noundef null, i32 noundef %4) #4
  %.not34 = icmp eq ptr %19, null
  br i1 %.not34, label %.sink.split, label %20

20:                                               ; preds = %18, %17
  %21 = tail call i32 @OPENSSL_sk_num(ptr noundef %2) #4
  %22 = icmp sgt i32 %21, 0
  br i1 %22, label %.lr.ph, label %._crit_edge

23:                                               ; preds = %.lr.ph
  %24 = add nuw nsw i32 %.02842, 1
  %25 = tail call i32 @OPENSSL_sk_num(ptr noundef %2) #4
  %26 = icmp slt i32 %24, %25
  br i1 %26, label %.lr.ph, label %._crit_edge, !llvm.loop !23

.lr.ph:                                           ; preds = %20, %23
  %.02842 = phi i32 [ %24, %23 ], [ 0, %20 ]
  %27 = tail call ptr @OPENSSL_sk_value(ptr noundef %2, i32 noundef %.02842) #4
  %28 = tail call i32 @CMS_add1_cert(ptr noundef nonnull %8, ptr noundef %27) #4
  %.not38 = icmp eq i32 %28, 0
  br i1 %.not38, label %.sink.split, label %23

._crit_edge:                                      ; preds = %23, %20
  %29 = and i32 %4, 64
  %.not35 = icmp eq i32 %29, 0
  br i1 %.not35, label %30, label %32

30:                                               ; preds = %._crit_edge
  %31 = tail call i32 @CMS_set_detached(ptr noundef nonnull %8, i32 noundef 0) #4
  br label %32

32:                                               ; preds = %30, %._crit_edge
  %33 = and i32 %4, 20480
  %.not36 = icmp eq i32 %33, 0
  br i1 %.not36, label %34, label %37

34:                                               ; preds = %32
  %35 = tail call i32 @CMS_final(ptr noundef nonnull %8, ptr noundef %3, ptr noundef null, i32 noundef %4)
  %.not37 = icmp eq i32 %35, 0
  br i1 %.not37, label %36, label %37

.sink.split:                                      ; preds = %.lr.ph, %18, %14, %7, %10
  %.sink43 = phi i32 [ 523, %10 ], [ 523, %7 ], [ 529, %14 ], [ 534, %18 ], [ 542, %.lr.ph ]
  %.sink = phi i32 [ 524334, %10 ], [ 524334, %7 ], [ 524334, %14 ], [ 99, %18 ], [ 524334, %.lr.ph ]
  tail call void @ERR_new() #4
  tail call void @ERR_set_debug(ptr noundef nonnull @.str, i32 noundef %.sink43, ptr noundef nonnull @__func__.CMS_sign_ex) #4
  tail call void (i32, i32, ptr, ...) @ERR_set_error(i32 noundef 46, i32 noundef %.sink, ptr noundef null) #4
  br label %36

36:                                               ; preds = %.sink.split, %34
  tail call void @CMS_ContentInfo_free(ptr noundef %8) #4
  br label %37

37:                                               ; preds = %32, %34, %36
  %.027 = phi ptr [ null, %36 ], [ %8, %34 ], [ %8, %32 ]
  ret ptr %.027
}